target datalayout = "e-m:e-p270:32:32-p271:32:32-p272:64:64-i64:64-i128:128-f80:128-n8:16:32:64-S128"
target triple = "x86_64-pc-linux-gnu"

%class.b3Vector3 = type { %union.anon }
%union.anon = type { [4 x float] }
%class.b3Vector4 = type { %class.b3Vector3 }

; Function Attrs: inlinehint mustprogress nounwind uwtable
define linkonce_odr dso_local void @_ZN9b3Vector48setValueERKfS1_S1_S1_(ptr noundef nonnull align 16 dereferenceable(16) %0, ptr noundef nonnull align 4 dereferenceable(4) %1, ptr noundef nonnull align 4 dereferenceable(4) %2, ptr noundef nonnull align 4 dereferenceable(4) %3, ptr noundef nonnull align 4 dereferenceable(4) %4) #8 comdat align 2 {
  %6 = alloca ptr, align 8
  %7 = alloca ptr, align 8
  %8 = alloca ptr, align 8
  %9 = alloca ptr, align 8
  %10 = alloca ptr, align 8
  store ptr %0, ptr %6, align 8, !tbaa !223
  store ptr %1, ptr %7, align 8, !tbaa !113
  store ptr %2, ptr %8, align 8, !tbaa !113
  store ptr %3, ptr %9, align 8, !tbaa !113
  store ptr %4, ptr %10, align 8, !tbaa !113
  %11 = load ptr, ptr %6, align 8
  %12 = load ptr, ptr %7, align 8, !tbaa !113
  %13 = load float, ptr %12, align 4, !tbaa !102
  %14 = getelementptr inbounds nuw %class.b3Vector3, ptr %11, i32 0, i32 0
  %15 = getelementptr inbounds [4 x float], ptr %14, i64 0, i64 0
  store float %13, ptr %15, align 16, !tbaa !111
  %16 = load ptr, ptr %8, align 8, !tbaa !113
  %17 = load float, ptr %16, align 4, !tbaa !102
  %18 = getelementptr inbounds nuw %class.b3Vector3, ptr %11, i32 0, i32 0
  %19 = getelementptr inbounds [4 x float], ptr %18, i64 0, i64 1
  store float %17, ptr %19, align 4, !tbaa !111
  %20 = load ptr, ptr %9, align 8, !tbaa !113
  %21 = load float, ptr %20, align 4, !tbaa !102
  %22 = getelementptr inbounds nuw %class.b3Vector3, ptr %11, i32 0, i32 0
  %23 = getelementptr inbounds [4 x float], ptr %22, i64 0, i64 2
  store float %21, ptr %23, align 8, !tbaa !111
  %24 = load ptr, ptr %10, align 8, !tbaa !113
  %25 = load float, ptr %24, align 4, !tbaa !102
  %26 = getelementptr inbounds nuw %class.b3Vector3, ptr %11, i32 0, i32 0
  %27 = getelementptr inbounds [4 x float], ptr %26, i64 0, i64 3
  store float %25, ptr %27, align 4, !tbaa !111
  ret void
}

; Function Attrs: inlinehint mustprogress uwtable
define linkonce_odr dso_local { <2 x float>, <2 x float> } @_Z13b3MakeVector4ffff(float noundef %0, float noundef %1, float noundef %2, float noundef %3) #2 comdat {
  %5 = alloca %class.b3Vector4, align 16
  %6 = alloca float, align 4
  %7 = alloca float, align 4
  %8 = alloca float, align 4
  %9 = alloca float, align 4
  store float %0, ptr %6, align 4, !tbaa !102
  store float %1, ptr %7, align 4, !tbaa !102
  store float %2, ptr %8, align 4, !tbaa !102
  store float %3, ptr %9, align 4, !tbaa !102
  call void @_ZN9b3Vector48setValueERKfS1_S1_S1_(ptr noundef nonnull align 16 dereferenceable(16) %5, ptr noundef nonnull align 4 dereferenceable(4) %6, ptr noundef nonnull align 4 dereferenceable(4) %7, ptr noundef nonnull align 4 dereferenceable(4) %8, ptr noundef nonnull align 4 dereferenceable(4) %9)
  %10 = getelementptr inbounds nuw %class.b3Vector4, ptr %5, i32 0, i32 0
  %11 = getelementptr inbounds nuw %class.b3Vector3, ptr %10, i32 0, i32 0
  %12 = getelementptr inbounds nuw %union.anon, ptr %11, i32 0, i32 0
  %13 = load { <2 x float>, <2 x float> }, ptr %12, align 16
  ret { <2 x float>, <2 x float> } %13
}

; Function Attrs: mustprogress uwtable
define dso_local { <2 x float>, <2 x float> } @_Z11make_float4ffff(float noundef %0, float noundef %1, float noundef %2, float noundef %3) #9 {
  %5 = alloca %class.b3Vector4, align 16
  %6 = alloca float, align 4
  %7 = alloca float, align 4
  %8 = alloca float, align 4
  %9 = alloca float, align 4
  store float %0, ptr %6, align 4, !tbaa !102
  store float %1, ptr %7, align 4, !tbaa !102
  store float %2, ptr %8, align 4, !tbaa !102
  store float %3, ptr %9, align 4, !tbaa !102
  %10 = load float, ptr %6, align 4, !tbaa !102
  %11 = load float, ptr %7, align 4, !tbaa !102
  %12 = load float, ptr %8, align 4, !tbaa !102
  %13 = load float, ptr %9, align 4, !tbaa !102
  %14 = call { <2 x float>, <2 x float> } @_Z13b3MakeVector4ffff(float noundef %10, float noundef %11, float noundef %12, float noundef %13)
  %15 = getelementptr inbounds nuw %class.b3Vector4, ptr %5, i32 0, i32 0
  %16 = getelementptr inbounds nuw %class.b3Vector3, ptr %15, i32 0, i32 0
  %17 = getelementptr inbounds nuw %union.anon, ptr %16, i32 0, i32 0
  %18 = getelementptr inbounds nuw { <2 x float>, <2 x float> }, ptr %17, i32 0, i32 0
  %19 = extractvalue { <2 x float>, <2 x float> } %14, 0
  store <2 x float> %19, ptr %18, align 16
  %20 = getelementptr inbounds nuw { <2 x float>, <2 x float> }, ptr %17, i32 0, i32 1
  %21 = extractvalue { <2 x float>, <2 x float> } %14, 1
  store <2 x float> %21, ptr %20, align 8
  %22 = getelementptr inbounds nuw %class.b3Vector4, ptr %5, i32 0, i32 0
  %23 = getelementptr inbounds nuw %class.b3Vector3, ptr %22, i32 0, i32 0
  %24 = getelementptr inbounds nuw %union.anon, ptr %23, i32 0, i32 0
  %25 = load { <2 x float>, <2 x float> }, ptr %24, align 16
  ret { <2 x float>, <2 x float> } %25
}