; Function Attrs: mustprogress nofree norecurse nosync nounwind willreturn memory(none) uwtable
define dso_local { <2 x float>, <2 x float> } @_Z11make_float4ffff(float noundef %0, float noundef %1, float noundef %2, float noundef %3) local_unnamed_addr #8 {
  %.sroa.0.0.vec.insert.i = insertelement <2 x float> poison, float %0, i64 0
  %.sroa.0.4.vec.insert.i = insertelement <2 x float> %.sroa.0.0.vec.insert.i, float %1, i64 1
  %.sroa.3.8.vec.insert.i = insertelement <2 x float> poison, float %2, i64 0
  %.sroa.3.12.vec.insert.i = insertelement <2 x float> %.sroa.3.8.vec.insert.i, float %3, i64 1
  %.fca.0.insert.i = insertvalue { <2 x float>, <2 x float> } poison, <2 x float> %.sroa.0.4.vec.insert.i, 0
  %.fca.1.insert.i = insertvalue { <2 x float>, <2 x float> } %.fca.0.insert.i, <2 x float> %.sroa.3.12.vec.insert.i, 1
  ret { <2 x float>, <2 x float> } %.fca.1.insert.i
}